; Function Attrs: mustprogress nofree norecurse nosync nounwind willreturn memory(read, inaccessiblemem: none) uwtable
define dso_local noundef i32 @_ZNK7testing8UnitTest23test_suite_to_run_countEv(ptr noundef nonnull readonly align 8 captures(none) dereferenceable(72) %0) local_unnamed_addr #13 align 2 {
  %2 = getelementptr inbounds nuw i8, ptr %0, i64 64
  %3 = load ptr, ptr %2, align 8, !tbaa !48
  %4 = getelementptr inbounds nuw i8, ptr %3, i64 184
  %5 = load ptr, ptr %4, align 8, !tbaa !293
  %6 = getelementptr inbounds nuw i8, ptr %3, i64 192
  %7 = load ptr, ptr %6, align 8, !tbaa !293
  %.not7.i.i = icmp eq ptr %5, %7
  br i1 %.not7.i.i, label %_ZNK7testing8internal12UnitTestImpl23test_suite_to_run_countEv.exit, label %.lr.ph.i.i

.lr.ph.i.i:                                       ; preds = %1, %.lr.ph.i.i
  %.09.i.i = phi i32 [ %spec.select.i.i, %.lr.ph.i.i ], [ 0, %1 ]
  %.sroa.04.08.i.i = phi ptr [ %12, %.lr.ph.i.i ], [ %5, %1 ]
  %8 = load ptr, ptr %.sroa.04.08.i.i, align 8, !tbaa !294
  %9 = getelementptr inbounds nuw i8, ptr %8, i64 112
  %10 = load i8, ptr %9, align 8, !tbaa !295, !range !66, !noundef !67
  %11 = zext nneg i8 %10 to i32
  %spec.select.i.i = add nuw nsw i32 %.09.i.i, %11
  %12 = getelementptr inbounds nuw i8, ptr %.sroa.04.08.i.i, i64 8
  %.not.i.i = icmp eq ptr %12, %7
  br i1 %.not.i.i, label %_ZNK7testing8internal12UnitTestImpl23test_suite_to_run_countEv.exit, label %.lr.ph.i.i, !llvm.loop !308

_ZNK7testing8internal12UnitTestImpl23test_suite_to_run_countEv.exit: ; preds = %.lr.ph.i.i, %1
  %.0.lcssa.i.i = phi i32 [ 0, %1 ], [ %spec.select.i.i, %.lr.ph.i.i ]
  ret i32 %.0.lcssa.i.i
}